Archive member included to satisfy reference by file (symbol)

/home/ynghia/gcc-arm-none-eabi-10.3-2021.10-x86_64-linux/gcc-arm-none-eabi-10.3-2021.10/bin/../lib/gcc/arm-none-eabi/10.3.1/../../../../arm-none-eabi/lib/thumb/v7-m/nofp/libc.a(lib_a-errno.o)
                              build/lib/syscall.o (__errno)
/home/ynghia/gcc-arm-none-eabi-10.3-2021.10-x86_64-linux/gcc-arm-none-eabi-10.3-2021.10/bin/../lib/gcc/arm-none-eabi/10.3.1/../../../../arm-none-eabi/lib/thumb/v7-m/nofp/libc.a(lib_a-impure.o)
                              /home/ynghia/gcc-arm-none-eabi-10.3-2021.10-x86_64-linux/gcc-arm-none-eabi-10.3-2021.10/bin/../lib/gcc/arm-none-eabi/10.3.1/../../../../arm-none-eabi/lib/thumb/v7-m/nofp/libc.a(lib_a-errno.o) (_impure_ptr)
/home/ynghia/gcc-arm-none-eabi-10.3-2021.10-x86_64-linux/gcc-arm-none-eabi-10.3-2021.10/bin/../lib/gcc/arm-none-eabi/10.3.1/thumb/v7-m/nofp/libgcc.a(_arm_mulsf3.o)
                              build/src/drivers/temp.o (__aeabi_fmul)
/home/ynghia/gcc-arm-none-eabi-10.3-2021.10-x86_64-linux/gcc-arm-none-eabi-10.3-2021.10/bin/../lib/gcc/arm-none-eabi/10.3.1/thumb/v7-m/nofp/libgcc.a(_arm_addsubsf3.o)
                              build/src/drivers/temp.o (__aeabi_fsub)
/home/ynghia/gcc-arm-none-eabi-10.3-2021.10-x86_64-linux/gcc-arm-none-eabi-10.3-2021.10/bin/../lib/gcc/arm-none-eabi/10.3.1/thumb/v7-m/nofp/libgcc.a(_arm_muldivsf3.o)
                              build/src/drivers/temp.o (__aeabi_fdiv)

Discarded input sections

 .debug_frame   0x0000000000000000       0x20 /home/ynghia/gcc-arm-none-eabi-10.3-2021.10-x86_64-linux/gcc-arm-none-eabi-10.3-2021.10/bin/../lib/gcc/arm-none-eabi/10.3.1/../../../../arm-none-eabi/lib/thumb/v7-m/nofp/libc.a(lib_a-errno.o)
 .ARM.attributes
                0x0000000000000000       0x2d /home/ynghia/gcc-arm-none-eabi-10.3-2021.10-x86_64-linux/gcc-arm-none-eabi-10.3-2021.10/bin/../lib/gcc/arm-none-eabi/10.3.1/../../../../arm-none-eabi/lib/thumb/v7-m/nofp/libc.a(lib_a-errno.o)
 .ARM.attributes
                0x0000000000000000       0x2d /home/ynghia/gcc-arm-none-eabi-10.3-2021.10-x86_64-linux/gcc-arm-none-eabi-10.3-2021.10/bin/../lib/gcc/arm-none-eabi/10.3.1/../../../../arm-none-eabi/lib/thumb/v7-m/nofp/libc.a(lib_a-impure.o)
 .debug_frame   0x0000000000000000       0x24 /home/ynghia/gcc-arm-none-eabi-10.3-2021.10-x86_64-linux/gcc-arm-none-eabi-10.3-2021.10/bin/../lib/gcc/arm-none-eabi/10.3.1/thumb/v7-m/nofp/libgcc.a(_arm_mulsf3.o)
 .ARM.attributes
                0x0000000000000000       0x1d /home/ynghia/gcc-arm-none-eabi-10.3-2021.10-x86_64-linux/gcc-arm-none-eabi-10.3-2021.10/bin/../lib/gcc/arm-none-eabi/10.3.1/thumb/v7-m/nofp/libgcc.a(_arm_mulsf3.o)
 .debug_frame   0x0000000000000000       0x4c /home/ynghia/gcc-arm-none-eabi-10.3-2021.10-x86_64-linux/gcc-arm-none-eabi-10.3-2021.10/bin/../lib/gcc/arm-none-eabi/10.3.1/thumb/v7-m/nofp/libgcc.a(_arm_addsubsf3.o)
 .ARM.attributes
                0x0000000000000000       0x1d /home/ynghia/gcc-arm-none-eabi-10.3-2021.10-x86_64-linux/gcc-arm-none-eabi-10.3-2021.10/bin/../lib/gcc/arm-none-eabi/10.3.1/thumb/v7-m/nofp/libgcc.a(_arm_addsubsf3.o)
 .debug_frame   0x0000000000000000       0x38 /home/ynghia/gcc-arm-none-eabi-10.3-2021.10-x86_64-linux/gcc-arm-none-eabi-10.3-2021.10/bin/../lib/gcc/arm-none-eabi/10.3.1/thumb/v7-m/nofp/libgcc.a(_arm_muldivsf3.o)
 .ARM.attributes
                0x0000000000000000       0x1d /home/ynghia/gcc-arm-none-eabi-10.3-2021.10-x86_64-linux/gcc-arm-none-eabi-10.3-2021.10/bin/../lib/gcc/arm-none-eabi/10.3.1/thumb/v7-m/nofp/libgcc.a(_arm_muldivsf3.o)

Memory Configuration

Name             Origin             Length             Attributes
RAM              0x0000000020000000 0x0000000000005000 xrw
FLASH            0x0000000008000000 0x0000000000010000 xr
*default*        0x0000000000000000 0xffffffffffffffff

Linker script and memory map

LOAD build/Startup/startup.o
LOAD build/src/main.o
LOAD build/lib/rcc.o
LOAD build/lib/gpio.o
LOAD build/lib/adc.o
LOAD build/lib/uart.o
LOAD build/lib/syscall.o
LOAD build/src/drivers/log_info.o
LOAD build/src/drivers/temp.o
                0x0000000020005000                _estack = (ORIGIN (RAM) + LENGTH (RAM))
                0x0000000000000200                _Min_Heap_Size = 0x200
                0x0000000000000400                _Min_Stack_Size = 0x400

.isr_vector     0x0000000008000000      0x130
                0x0000000008000000                . = ALIGN (0x4)
 *(.isr_vector)
 .isr_vector    0x0000000008000000      0x130 build/Startup/startup.o
                0x0000000008000000                vectors
                0x0000000008000130                . = ALIGN (0x4)

.text           0x0000000008000130      0xeac
                0x0000000008000130                . = ALIGN (0x4)
 *(.text)
 .text          0x0000000008000130       0x64 build/Startup/startup.o
                0x0000000008000130                Reset_Handler
                0x000000000800018c                DMA1_Channel1_handle
                0x000000000800018c                SPI2_handle
                0x000000000800018c                TIM1_UP_handle
                0x000000000800018c                EXTI3_handle
                0x000000000800018c                TIM7_handle
                0x000000000800018c                TIM1_BRK_handle
                0x000000000800018c                ADC3_handle
                0x000000000800018c                USART3_handle
                0x000000000800018c                CAN_RX1_handle
                0x000000000800018c                RTCAlarm_handle
                0x000000000800018c                EXTI4_handle
                0x000000000800018c                PVD_handle
                0x000000000800018c                UART4_handle
                0x000000000800018c                FLASH_handle
                0x000000000800018c                DMA2_Channel2_handle
                0x000000000800018c                I2C1_ER_handle
                0x000000000800018c                DMA1_Channel5_handle
                0x000000000800018c                USART2_handle
                0x000000000800018c                EXTI2_handle
                0x000000000800018c                EXTI1_handle
                0x000000000800018c                TIM2_handle
                0x000000000800018c                DMA1_Channel6_handle
                0x000000000800018c                HardFault_handle
                0x000000000800018c                SysTick_handle
                0x000000000800018c                TIM1_TRG_COM_handle
                0x000000000800018c                USB_HP_CAN_TX_handle
                0x000000000800018c                CAN_SCE_handle
                0x000000000800018c                DMA2_Channel4_5_handle
                0x000000000800018c                FSMC_handle
                0x000000000800018c                EXTI15_10_handle
                0x000000000800018c                EXTI0_handle
                0x000000000800018c                USBWakeUp_handle
                0x000000000800018c                TIM6_handle
                0x000000000800018c                TIM5_handle
                0x000000000800018c                RTC_handle
                0x000000000800018c                TIM3_handle
                0x000000000800018c                EXTI9_5_handle
                0x000000000800018c                DMA2_Channel1_handle
                0x000000000800018c                TIM8_CC_handle
                0x000000000800018c                SPI1_handle
                0x000000000800018c                DMA1_Channel4_handle
                0x000000000800018c                I2C1_EV_handle
                0x000000000800018c                PendSV_handle
                0x000000000800018c                USART1_handle
                0x000000000800018c                Default_Handle
                0x000000000800018c                SDIO_handle
                0x000000000800018c                NMI_handle
                0x000000000800018c                UART5_handle
                0x000000000800018c                TIM1_CC_handle
                0x000000000800018c                BusFault_handle
                0x000000000800018c                SVCall_handle
                0x000000000800018c                DMA1_Channel3_handle
                0x000000000800018c                WWDG_handle
                0x000000000800018c                MemManage_handle
                0x000000000800018c                TIM8_UP_handle
                0x000000000800018c                DMA1_Channel2_handle
                0x000000000800018c                RCC_handle
                0x000000000800018c                TIM8_TRG_COM_handle
                0x000000000800018c                Debug_Monitor_handle
                0x000000000800018c                UsageFault_handle
                0x000000000800018c                DMA1_Channel7_handle
                0x000000000800018c                I2C2_EV_handle
                0x000000000800018c                TAMPER_handle
                0x000000000800018c                TIM8_BRK_handle
                0x000000000800018c                ADC1_2_handle
                0x000000000800018c                DMA2_Channel3_handle
                0x000000000800018c                TIM4_handle
                0x000000000800018c                SPI3_handle
                0x000000000800018c                I2C2_ER_handle
                0x000000000800018c                USB_LP_CAN_RX0_handle
 .text          0x0000000008000194       0xb0 build/src/main.o
                0x0000000008000194                main
 .text          0x0000000008000244       0x28 build/lib/rcc.o
                0x0000000008000244                enable_clock
 .text          0x000000000800026c      0x142 build/lib/gpio.o
                0x000000000800026c                GPIO_Config
                0x000000000800032e                gpio_set_level
                0x0000000008000360                gpio_get_level
                0x0000000008000388                gpio_toggle_level
 *fill*         0x00000000080003ae        0x2 
 .text          0x00000000080003b0       0xa8 build/lib/adc.o
                0x00000000080003b0                init_adc
                0x0000000008000414                start_adc
 .text          0x0000000008000458      0x198 build/lib/uart.o
                0x0000000008000458                uart_init_driver
                0x0000000008000510                uart_set_pin
                0x0000000008000574                uart_write_byte
                0x00000000080005a4                uart_write_data
 .text          0x00000000080005f0      0x25c build/lib/syscall.o
                0x00000000080005f0                initialise_monitor_handles
                0x00000000080005fc                _getpid
                0x000000000800060a                _kill
                0x000000000800062a                _exit
                0x000000000800063e                _read
                0x0000000008000678                _write
                0x00000000080006b0                _close
                0x00000000080006c6                _fstat
                0x00000000080006e4                _isatty
                0x00000000080006f8                _lseek
                0x0000000008000710                _open
                0x000000000800072a                _wait
                0x0000000008000748                _unlink
                0x0000000008000766                _times
                0x000000000800077c                _stat
                0x000000000800079a                _link
                0x00000000080007ba                _fork
                0x00000000080007d0                _execve
                0x00000000080007f2                _sbrk
 .text          0x000000000800084c       0x2c build/src/drivers/log_info.o
                0x000000000800084c                log_info
 .text          0x0000000008000878      0x134 build/src/drivers/temp.o
                0x0000000008000878                select_input_chanel
                0x0000000008000894                select_sample_time
                0x00000000080008b0                enabled_sensor
                0x00000000080008d4                start_conversion
                0x0000000008000918                obtain_temperature
                0x0000000008000984                config_mode
 .text          0x00000000080009ac        0x0 /home/ynghia/gcc-arm-none-eabi-10.3-2021.10-x86_64-linux/gcc-arm-none-eabi-10.3-2021.10/bin/../lib/gcc/arm-none-eabi/10.3.1/../../../../arm-none-eabi/lib/thumb/v7-m/nofp/libc.a(lib_a-errno.o)
 .text          0x00000000080009ac        0x0 /home/ynghia/gcc-arm-none-eabi-10.3-2021.10-x86_64-linux/gcc-arm-none-eabi-10.3-2021.10/bin/../lib/gcc/arm-none-eabi/10.3.1/../../../../arm-none-eabi/lib/thumb/v7-m/nofp/libc.a(lib_a-impure.o)
 .text          0x00000000080009ac      0x168 /home/ynghia/gcc-arm-none-eabi-10.3-2021.10-x86_64-linux/gcc-arm-none-eabi-10.3-2021.10/bin/../lib/gcc/arm-none-eabi/10.3.1/thumb/v7-m/nofp/libgcc.a(_arm_mulsf3.o)
 .text          0x0000000008000b14      0x21c /home/ynghia/gcc-arm-none-eabi-10.3-2021.10-x86_64-linux/gcc-arm-none-eabi-10.3-2021.10/bin/../lib/gcc/arm-none-eabi/10.3.1/thumb/v7-m/nofp/libgcc.a(_arm_addsubsf3.o)
                0x0000000008000b14                __aeabi_frsub
                0x0000000008000b1c                __subsf3
                0x0000000008000b1c                __aeabi_fsub
                0x0000000008000b20                __aeabi_fadd
                0x0000000008000b20                __addsf3
                0x0000000008000c80                __aeabi_ui2f
                0x0000000008000c80                __floatunsisf
                0x0000000008000c88                __aeabi_i2f
                0x0000000008000c88                __floatsisf
                0x0000000008000ca4                __floatundisf
                0x0000000008000ca4                __aeabi_ul2f
                0x0000000008000cb4                __floatdisf
                0x0000000008000cb4                __aeabi_l2f
 .text          0x0000000008000d30      0x2a0 /home/ynghia/gcc-arm-none-eabi-10.3-2021.10-x86_64-linux/gcc-arm-none-eabi-10.3-2021.10/bin/../lib/gcc/arm-none-eabi/10.3.1/thumb/v7-m/nofp/libgcc.a(_arm_muldivsf3.o)
                0x0000000008000d30                __mulsf3
                0x0000000008000d30                __aeabi_fmul
                0x0000000008000e98                __divsf3
                0x0000000008000e98                __aeabi_fdiv
 *(.text*)
 .text.__errno  0x0000000008000fd0        0xc /home/ynghia/gcc-arm-none-eabi-10.3-2021.10-x86_64-linux/gcc-arm-none-eabi-10.3-2021.10/bin/../lib/gcc/arm-none-eabi/10.3.1/../../../../arm-none-eabi/lib/thumb/v7-m/nofp/libc.a(lib_a-errno.o)
                0x0000000008000fd0                __errno
 *(.glue_7)
 .glue_7        0x0000000008000fdc        0x0 linker stubs
 *(.glue_7t)
 .glue_7t       0x0000000008000fdc        0x0 linker stubs
 *(.eh_frame)
 *(.init)
 *(.fini)
                0x0000000008000fdc                . = ALIGN (0x4)
                0x0000000008000fdc                _etext = .

.vfp11_veneer   0x0000000008000fdc        0x0
 .vfp11_veneer  0x0000000008000fdc        0x0 linker stubs

.v4_bx          0x0000000008000fdc        0x0
 .v4_bx         0x0000000008000fdc        0x0 linker stubs

.iplt           0x0000000008000fdc        0x0
 .iplt          0x0000000008000fdc        0x0 build/Startup/startup.o

.rodata         0x0000000008000fdc       0x1c
 *(.rodata)
 .rodata        0x0000000008000fdc       0x18 build/src/main.o
 *(.rodata*)
 .rodata._global_impure_ptr
                0x0000000008000ff4        0x4 /home/ynghia/gcc-arm-none-eabi-10.3-2021.10-x86_64-linux/gcc-arm-none-eabi-10.3-2021.10/bin/../lib/gcc/arm-none-eabi/10.3.1/../../../../arm-none-eabi/lib/thumb/v7-m/nofp/libc.a(lib_a-impure.o)
                0x0000000008000ff4                _global_impure_ptr
                0x0000000008000ff8                . = ALIGN (0x4)

.rel.dyn        0x0000000008000ff8        0x0
 .rel.iplt      0x0000000008000ff8        0x0 build/Startup/startup.o

.ARM.extab      0x0000000008000ff8        0x0
                0x0000000008000ff8                . = ALIGN (0x4)
 *(.ARM.extab* .gnu.linkonce.armextab.*)
                0x0000000008000ff8                . = ALIGN (0x4)

.ARM            0x0000000008000ff8        0x0
                0x0000000008000ff8                . = ALIGN (0x4)
                0x0000000008000ff8                __exidx_start = .
 *(.ARM.exidx*)
                0x0000000008000ff8                __exidx_end = .
                0x0000000008000ff8                . = ALIGN (0x4)

.preinit_array  0x0000000008000ff8        0x0
                0x0000000008000ff8                . = ALIGN (0x4)
                [!provide]                        PROVIDE (__preinit_array_start = .)
 *(.preinit_array*)
                [!provide]                        PROVIDE (__preinit_array_end = .)
                0x0000000008000ff8                . = ALIGN (0x4)

.init_array     0x0000000008000ff8        0x0
                0x0000000008000ff8                . = ALIGN (0x4)
                [!provide]                        PROVIDE (__init_array_start = .)
 *(SORT_BY_NAME(.init_array.*))
 *(.init_array*)
                [!provide]                        PROVIDE (__init_array_end = .)
                0x0000000008000ff8                . = ALIGN (0x4)

.fini_array     0x0000000008000ff8        0x0
                0x0000000008000ff8                . = ALIGN (0x4)
                [!provide]                        PROVIDE (__fini_array_start = .)
 *(SORT_BY_NAME(.fini_array.*))
 *(.fini_array*)
                [!provide]                        PROVIDE (__fini_array_end = .)
                0x0000000008000ff8                . = ALIGN (0x4)
                0x0000000008000ff8                _sidata = LOADADDR (.data)

.data           0x0000000020000000      0x430 load address 0x0000000008000ff8
                0x0000000020000000                . = ALIGN (0x4)
                0x0000000020000000                _sdata = .
 *(.data)
 .data          0x0000000020000000        0x0 build/Startup/startup.o
 .data          0x0000000020000000        0x0 build/src/main.o
 .data          0x0000000020000000        0x0 build/lib/rcc.o
 .data          0x0000000020000000        0x0 build/lib/gpio.o
 .data          0x0000000020000000        0x0 build/lib/adc.o
 .data          0x0000000020000000        0x0 build/lib/uart.o
 .data          0x0000000020000000        0x4 build/lib/syscall.o
                0x0000000020000000                environ
 .data          0x0000000020000004        0x0 build/src/drivers/log_info.o
 .data          0x0000000020000004        0x0 build/src/drivers/temp.o
 .data          0x0000000020000004        0x0 /home/ynghia/gcc-arm-none-eabi-10.3-2021.10-x86_64-linux/gcc-arm-none-eabi-10.3-2021.10/bin/../lib/gcc/arm-none-eabi/10.3.1/../../../../arm-none-eabi/lib/thumb/v7-m/nofp/libc.a(lib_a-errno.o)
 .data          0x0000000020000004        0x0 /home/ynghia/gcc-arm-none-eabi-10.3-2021.10-x86_64-linux/gcc-arm-none-eabi-10.3-2021.10/bin/../lib/gcc/arm-none-eabi/10.3.1/../../../../arm-none-eabi/lib/thumb/v7-m/nofp/libc.a(lib_a-impure.o)
 .data          0x0000000020000004        0x0 /home/ynghia/gcc-arm-none-eabi-10.3-2021.10-x86_64-linux/gcc-arm-none-eabi-10.3-2021.10/bin/../lib/gcc/arm-none-eabi/10.3.1/thumb/v7-m/nofp/libgcc.a(_arm_mulsf3.o)
 .data          0x0000000020000004        0x0 /home/ynghia/gcc-arm-none-eabi-10.3-2021.10-x86_64-linux/gcc-arm-none-eabi-10.3-2021.10/bin/../lib/gcc/arm-none-eabi/10.3.1/thumb/v7-m/nofp/libgcc.a(_arm_addsubsf3.o)
 .data          0x0000000020000004        0x0 /home/ynghia/gcc-arm-none-eabi-10.3-2021.10-x86_64-linux/gcc-arm-none-eabi-10.3-2021.10/bin/../lib/gcc/arm-none-eabi/10.3.1/thumb/v7-m/nofp/libgcc.a(_arm_muldivsf3.o)
 *(.data*)
 .data._impure_ptr
                0x0000000020000004        0x4 /home/ynghia/gcc-arm-none-eabi-10.3-2021.10-x86_64-linux/gcc-arm-none-eabi-10.3-2021.10/bin/../lib/gcc/arm-none-eabi/10.3.1/../../../../arm-none-eabi/lib/thumb/v7-m/nofp/libc.a(lib_a-impure.o)
                0x0000000020000004                _impure_ptr
 .data.impure_data
                0x0000000020000008      0x428 /home/ynghia/gcc-arm-none-eabi-10.3-2021.10-x86_64-linux/gcc-arm-none-eabi-10.3-2021.10/bin/../lib/gcc/arm-none-eabi/10.3.1/../../../../arm-none-eabi/lib/thumb/v7-m/nofp/libc.a(lib_a-impure.o)
 *(.RamFunc)
 *(.RamFunc*)
                0x0000000020000430                . = ALIGN (0x4)
                0x0000000020000430                _edata = .

.igot.plt       0x0000000020000430        0x0 load address 0x0000000008001428
 .igot.plt      0x0000000020000430        0x0 build/Startup/startup.o
                0x0000000020000430                . = ALIGN (0x4)

.bss            0x0000000020000430        0xc load address 0x0000000008001428
                0x0000000020000430                _sbss = .
                0x0000000020000430                __bss_start__ = _sbss
 *(.bss)
 .bss           0x0000000020000430        0x0 build/Startup/startup.o
 .bss           0x0000000020000430        0x4 build/src/main.o
                0x0000000020000430                p
 .bss           0x0000000020000434        0x0 build/lib/rcc.o
 .bss           0x0000000020000434        0x0 build/lib/gpio.o
 .bss           0x0000000020000434        0x0 build/lib/adc.o
 .bss           0x0000000020000434        0x0 build/lib/uart.o
 .bss           0x0000000020000434        0x8 build/lib/syscall.o
                0x0000000020000434                __env
 .bss           0x000000002000043c        0x0 build/src/drivers/log_info.o
 .bss           0x000000002000043c        0x0 build/src/drivers/temp.o
 .bss           0x000000002000043c        0x0 /home/ynghia/gcc-arm-none-eabi-10.3-2021.10-x86_64-linux/gcc-arm-none-eabi-10.3-2021.10/bin/../lib/gcc/arm-none-eabi/10.3.1/../../../../arm-none-eabi/lib/thumb/v7-m/nofp/libc.a(lib_a-errno.o)
 .bss           0x000000002000043c        0x0 /home/ynghia/gcc-arm-none-eabi-10.3-2021.10-x86_64-linux/gcc-arm-none-eabi-10.3-2021.10/bin/../lib/gcc/arm-none-eabi/10.3.1/../../../../arm-none-eabi/lib/thumb/v7-m/nofp/libc.a(lib_a-impure.o)
 .bss           0x000000002000043c        0x0 /home/ynghia/gcc-arm-none-eabi-10.3-2021.10-x86_64-linux/gcc-arm-none-eabi-10.3-2021.10/bin/../lib/gcc/arm-none-eabi/10.3.1/thumb/v7-m/nofp/libgcc.a(_arm_mulsf3.o)
 .bss           0x000000002000043c        0x0 /home/ynghia/gcc-arm-none-eabi-10.3-2021.10-x86_64-linux/gcc-arm-none-eabi-10.3-2021.10/bin/../lib/gcc/arm-none-eabi/10.3.1/thumb/v7-m/nofp/libgcc.a(_arm_addsubsf3.o)
 .bss           0x000000002000043c        0x0 /home/ynghia/gcc-arm-none-eabi-10.3-2021.10-x86_64-linux/gcc-arm-none-eabi-10.3-2021.10/bin/../lib/gcc/arm-none-eabi/10.3.1/thumb/v7-m/nofp/libgcc.a(_arm_muldivsf3.o)
 *(.bss*)
 *(COMMON)
                0x000000002000043c                . = ALIGN (0x4)
                0x000000002000043c                _ebss = .
                0x000000002000043c                __bss_end__ = _ebss

._user_heap_stack
                0x000000002000043c      0x604 load address 0x0000000008001428
                0x0000000020000440                . = ALIGN (0x8)
 *fill*         0x000000002000043c        0x4 
                0x0000000020000440                PROVIDE (end = .)
                [!provide]                        PROVIDE (_end = .)
                0x0000000020000640                . = (. + _Min_Heap_Size)
 *fill*         0x0000000020000440      0x200 
                0x0000000020000a40                . = (. + _Min_Stack_Size)
 *fill*         0x0000000020000640      0x400 
                0x0000000020000a40                . = ALIGN (0x8)

/DISCARD/
 libc.a(*)
 libm.a(*)
 libgcc.a(*)

.ARM.attributes
                0x0000000000000000       0x2d
 *(.ARM.attributes)
 .ARM.attributes
                0x0000000000000000       0x2d build/Startup/startup.o
 .ARM.attributes
                0x000000000000002d       0x2d build/src/main.o
 .ARM.attributes
                0x000000000000005a       0x2d build/lib/rcc.o
 .ARM.attributes
                0x0000000000000087       0x2d build/lib/gpio.o
 .ARM.attributes
                0x00000000000000b4       0x2d build/lib/adc.o
 .ARM.attributes
                0x00000000000000e1       0x2d build/lib/uart.o
 .ARM.attributes
                0x000000000000010e       0x2d build/lib/syscall.o
 .ARM.attributes
                0x000000000000013b       0x2d build/src/drivers/log_info.o
 .ARM.attributes
                0x0000000000000168       0x2d build/src/drivers/temp.o
OUTPUT(build/firmware.elf elf32-littlearm)
LOAD linker stubs
LOAD /home/ynghia/gcc-arm-none-eabi-10.3-2021.10-x86_64-linux/gcc-arm-none-eabi-10.3-2021.10/bin/../lib/gcc/arm-none-eabi/10.3.1/../../../../arm-none-eabi/lib/thumb/v7-m/nofp/libc.a
LOAD /home/ynghia/gcc-arm-none-eabi-10.3-2021.10-x86_64-linux/gcc-arm-none-eabi-10.3-2021.10/bin/../lib/gcc/arm-none-eabi/10.3.1/../../../../arm-none-eabi/lib/thumb/v7-m/nofp/libm.a
LOAD /home/ynghia/gcc-arm-none-eabi-10.3-2021.10-x86_64-linux/gcc-arm-none-eabi-10.3-2021.10/bin/../lib/gcc/arm-none-eabi/10.3.1/thumb/v7-m/nofp/libgcc.a

.debug_info     0x0000000000000000     0x1e26
 .debug_info    0x0000000000000000      0x12f build/Startup/startup.o
 .debug_info    0x000000000000012f      0x5bb build/src/main.o
 .debug_info    0x00000000000006ea      0x141 build/lib/rcc.o
 .debug_info    0x000000000000082b      0x336 build/lib/gpio.o
 .debug_info    0x0000000000000b61      0x1f6 build/lib/adc.o
 .debug_info    0x0000000000000d57      0x539 build/lib/uart.o
 .debug_info    0x0000000000001290      0x721 build/lib/syscall.o
 .debug_info    0x00000000000019b1      0x11c build/src/drivers/log_info.o
 .debug_info    0x0000000000001acd      0x359 build/src/drivers/temp.o

.debug_abbrev   0x0000000000000000      0x8bf
 .debug_abbrev  0x0000000000000000       0xc1 build/Startup/startup.o
 .debug_abbrev  0x00000000000000c1      0x122 build/src/main.o
 .debug_abbrev  0x00000000000001e3       0x7a build/lib/rcc.o
 .debug_abbrev  0x000000000000025d      0x119 build/lib/gpio.o
 .debug_abbrev  0x0000000000000376       0xb0 build/lib/adc.o
 .debug_abbrev  0x0000000000000426      0x15c build/lib/uart.o
 .debug_abbrev  0x0000000000000582      0x1a3 build/lib/syscall.o
 .debug_abbrev  0x0000000000000725       0x8b build/src/drivers/log_info.o
 .debug_abbrev  0x00000000000007b0      0x10f build/src/drivers/temp.o

.debug_aranges  0x0000000000000000      0x120
 .debug_aranges
                0x0000000000000000       0x20 build/Startup/startup.o
 .debug_aranges
                0x0000000000000020       0x20 build/src/main.o
 .debug_aranges
                0x0000000000000040       0x20 build/lib/rcc.o
 .debug_aranges
                0x0000000000000060       0x20 build/lib/gpio.o
 .debug_aranges
                0x0000000000000080       0x20 build/lib/adc.o
 .debug_aranges
                0x00000000000000a0       0x20 build/lib/uart.o
 .debug_aranges
                0x00000000000000c0       0x20 build/lib/syscall.o
 .debug_aranges
                0x00000000000000e0       0x20 build/src/drivers/log_info.o
 .debug_aranges
                0x0000000000000100       0x20 build/src/drivers/temp.o

.debug_line     0x0000000000000000     0x107a
 .debug_line    0x0000000000000000      0x182 build/Startup/startup.o
 .debug_line    0x0000000000000182      0x1bb build/src/main.o
 .debug_line    0x000000000000033d      0x156 build/lib/rcc.o
 .debug_line    0x0000000000000493      0x250 build/lib/gpio.o
 .debug_line    0x00000000000006e3      0x182 build/lib/adc.o
 .debug_line    0x0000000000000865      0x22f build/lib/uart.o
 .debug_line    0x0000000000000a94      0x2a9 build/lib/syscall.o
 .debug_line    0x0000000000000d3d      0x17e build/src/drivers/log_info.o
 .debug_line    0x0000000000000ebb      0x1bf build/src/drivers/temp.o

.debug_str      0x0000000000000000      0x98e
 .debug_str     0x0000000000000000      0x145 build/Startup/startup.o
                                        0x182 (size before relaxing)
 .debug_str     0x0000000000000145      0x421 build/src/main.o
                                        0x552 (size before relaxing)
 .debug_str     0x0000000000000566       0x17 build/lib/rcc.o
                                        0x1bb (size before relaxing)
 .debug_str     0x000000000000057d       0x8e build/lib/gpio.o
                                        0x34c (size before relaxing)
 .debug_str     0x000000000000060b       0x1d build/lib/adc.o
                                        0x204 (size before relaxing)
 .debug_str     0x0000000000000628       0x7c build/lib/uart.o
                                        0x4fa (size before relaxing)
 .debug_str     0x00000000000006a4      0x225 build/lib/syscall.o
                                        0x3a0 (size before relaxing)
 .debug_str     0x00000000000008c9       0x20 build/src/drivers/log_info.o
                                        0x18f (size before relaxing)
 .debug_str     0x00000000000008e9       0xa5 build/src/drivers/temp.o
                                        0x31b (size before relaxing)

.comment        0x0000000000000000       0x49
 .comment       0x0000000000000000       0x49 build/Startup/startup.o
                                         0x4a (size before relaxing)
 .comment       0x0000000000000049       0x4a build/src/main.o
 .comment       0x0000000000000049       0x4a build/lib/rcc.o
 .comment       0x0000000000000049       0x4a build/lib/gpio.o
 .comment       0x0000000000000049       0x4a build/lib/adc.o
 .comment       0x0000000000000049       0x4a build/lib/uart.o
 .comment       0x0000000000000049       0x4a build/lib/syscall.o
 .comment       0x0000000000000049       0x4a build/src/drivers/log_info.o
 .comment       0x0000000000000049       0x4a build/src/drivers/temp.o

.debug_frame    0x0000000000000000      0x640
 .debug_frame   0x0000000000000000       0x48 build/Startup/startup.o
 .debug_frame   0x0000000000000048       0x30 build/src/main.o
 .debug_frame   0x0000000000000078       0x30 build/lib/rcc.o
 .debug_frame   0x00000000000000a8       0xb0 build/lib/gpio.o
 .debug_frame   0x0000000000000158       0x58 build/lib/adc.o
 .debug_frame   0x00000000000001b0       0xa8 build/lib/uart.o
 .debug_frame   0x0000000000000258      0x2d0 build/lib/syscall.o
 .debug_frame   0x0000000000000528       0x38 build/src/drivers/log_info.o
 .debug_frame   0x0000000000000560       0xe0 build/src/drivers/temp.o
